   1               		.file	"eeprom.c"
   2               	__SREG__ = 0x3f
   3               	__SP_H__ = 0x3e
   4               	__SP_L__ = 0x3d
   5               	__CCP__  = 0x34
   6               	__tmp_reg__ = 0
   7               	__zero_reg__ = 1
  15               	.Ltext0:
  17               	eeprom_read_byte:
  18               	.LFB2:
  19               	.LM1:
  20               	.LVL0:
  21               	/* prologue: function */
  22               	/* frame size = 0 */
  23 0000 9C01      		movw r18,r24
  24               	.LVL1:
  25               	.L2:
  26               	.LM2:
  27 0002 E199      		sbic 60-32,1
  28 0004 00C0      		rjmp .L2
  29               	.LM3:
  30 0006 3FBB      		out (62)+1-32,r19
  31 0008 2EBB      		out 62-32,r18
  32               	.LM4:
  33               	/* #APP */
  34               	 ;  208 "c:/winavr-20090313/lib/gcc/../../avr/include/avr/eeprom.h" 1
  35               		/* START EEPROM READ CRITICAL SECTION */ 
  36 000a E09A      		sbi 28, 0 
  37 000c 8DB3      		in r24, 29 
  38               		/* END EEPROM READ CRITICAL SECTION */ 
  39               		
  40               	 ;  0 "" 2
  41               	.LVL2:
  42               	.LVL3:
  43               	/* epilogue start */
  44               	.LM5:
  45               	/* #NOAPP */
  46 000e 0895      		ret
  47               	.LFE2:
  50               	eeprom_write_byte:
  51               	.LFB6:
  52               	.LM6:
  53               	.LVL4:
  54               	/* prologue: function */
  55               	/* frame size = 0 */
  56 0010 9C01      		movw r18,r24
  57               	.LVL5:
  58               	.L6:
  59               	.LM7:
  60 0012 E199      		sbic 60-32,1
  61 0014 00C0      		rjmp .L6
  62               	.LM8:
  63 0016 3FBB      		out (62)+1-32,r19
  64 0018 2EBB      		out 62-32,r18
  65               	.LM9:
  66 001a 6DBB      		out 61-32,r22
  67               	.LM10:
  68               	/* #APP */
  69               	 ;  315 "c:/winavr-20090313/lib/gcc/../../avr/include/avr/eeprom.h" 1
  70               		/* START EEPROM WRITE CRITICAL SECTION */
  71 001c 0FB6      		in	r0, 63		
  72 001e F894      		cli				
  73 0020 E29A      		sbi	28, 2	
  74 0022 E19A      		sbi	28, 1	
  75 0024 0FBE      		out	63, r0		
  76               		/* END EEPROM WRITE CRITICAL SECTION */
  77               	 ;  0 "" 2
  78               	/* epilogue start */
  79               	.LM11:
  80               	/* #NOAPP */
  81 0026 0895      		ret
  82               	.LFE6:
  84               	.global	eeprom_w8
  86               	eeprom_w8:
  87               	.LFB12:
  88               	.LM12:
  89               	.LVL6:
  90               	/* prologue: function */
  91               	/* frame size = 0 */
  92 0028 9C01      		movw r18,r24
  93               	.LVL7:
  94               	.LM13:
  95 002a 1092 0000 		sts (wtch_counter)+1,__zero_reg__
  96 002e 1092 0000 		sts wtch_counter,__zero_reg__
  97               	/* #APP */
  98               	 ;  82 "eeprom.c" 1
  99 0032 A895      		wdr
 100               	 ;  0 "" 2
 101               	/* #NOAPP */
 102               	.L10:
 103               	.LM14:
 104 0034 E199      		sbic 60-32,1
 105 0036 00C0      		rjmp .L10
 106               	.L13:
 107               	.LBB38:
 108               	.LBB39:
 109               	.LM15:
 110 0038 E199      		sbic 60-32,1
 111 003a 00C0      		rjmp .L13
 112               	.LM16:
 113 003c 3FBB      		out (62)+1-32,r19
 114 003e 2EBB      		out 62-32,r18
 115               	.LM17:
 116 0040 6DBB      		out 61-32,r22
 117               	.LM18:
 118               	/* #APP */
 119               	 ;  315 "c:/winavr-20090313/lib/gcc/../../avr/include/avr/eeprom.h" 1
 120               		/* START EEPROM WRITE CRITICAL SECTION */
 121 0042 0FB6      		in	r0, 63		
 122 0044 F894      		cli				
 123 0046 E29A      		sbi	28, 2	
 124 0048 E19A      		sbi	28, 1	
 125 004a 0FBE      		out	63, r0		
 126               		/* END EEPROM WRITE CRITICAL SECTION */
 127               	 ;  0 "" 2
 128               	/* epilogue start */
 129               	/* #NOAPP */
 130               	.LBE39:
 131               	.LBE38:
 132               	.LM19:
 133 004c 0895      		ret
 134               	.LFE12:
 136               	.global	eeprom_r8
 138               	eeprom_r8:
 139               	.LFB13:
 140               	.LM20:
 141               	.LVL8:
 142               	/* prologue: function */
 143               	/* frame size = 0 */
 144 004e 9C01      		movw r18,r24
 145               	.LVL9:
 146               	.L17:
 147               	.LBB40:
 148               	.LBB41:
 149               	.LM21:
 150 0050 E199      		sbic 60-32,1
 151 0052 00C0      		rjmp .L17
 152               	.LM22:
 153 0054 3FBB      		out (62)+1-32,r19
 154 0056 2EBB      		out 62-32,r18
 155               	.LM23:
 156               	/* #APP */
 157               	 ;  208 "c:/winavr-20090313/lib/gcc/../../avr/include/avr/eeprom.h" 1
 158               		/* START EEPROM READ CRITICAL SECTION */ 
 159 0058 E09A      		sbi 28, 0 
 160 005a 8DB3      		in r24, 29 
 161               		/* END EEPROM READ CRITICAL SECTION */ 
 162               		
 163               	 ;  0 "" 2
 164               	.LVL10:
 165               	.LVL11:
 166               	/* epilogue start */
 167               	/* #NOAPP */
 168               	.LBE41:
 169               	.LBE40:
 170               	.LM24:
 171 005c 0895      		ret
 172               	.LFE13:
 174               	.global	eeprom_r32
 176               	eeprom_r32:
 177               	.LFB17:
 178               	.LM25:
 179               	.LVL12:
 180 005e DF93      		push r29
 181 0060 CF93      		push r28
 182 0062 00D0      		rcall .
 183 0064 00D0      		rcall .
 184 0066 CDB7      		in r28,__SP_L__
 185 0068 DEB7      		in r29,__SP_H__
 186               	/* prologue: function */
 187               	/* frame size = 4 */
 188 006a BC01      		movw r22,r24
 189               	.LM26:
 190 006c 1092 0000 		sts (wtch_counter)+1,__zero_reg__
 191 0070 1092 0000 		sts wtch_counter,__zero_reg__
 192               	/* #APP */
 193               	 ;  113 "eeprom.c" 1
 194 0074 A895      		wdr
 195               	 ;  0 "" 2
 196               	.LM27:
 197               	/* #NOAPP */
 198 0076 1982      		std Y+1,__zero_reg__
 199 0078 1A82      		std Y+2,__zero_reg__
 200 007a 1B82      		std Y+3,__zero_reg__
 201 007c 1C82      		std Y+4,__zero_reg__
 202               	.LVL13:
 203               	.LBB42:
 204               	.LBB43:
 205               	.LM28:
 206 007e CE01      		movw r24,r28
 207               	.LVL14:
 208 0080 0196      		adiw r24,1
 209 0082 44E0      		ldi r20,lo8(4)
 210 0084 50E0      		ldi r21,hi8(4)
 211 0086 20E0      		ldi r18,lo8(gs(eeprom_read_byte))
 212 0088 30E0      		ldi r19,hi8(gs(eeprom_read_byte))
 213 008a 0E94 0000 		call __eerd_block
 214               	.LVL15:
 215 008e 6981      		ldd r22,Y+1
 216 0090 7A81      		ldd r23,Y+2
 217               	.LVL16:
 218               	.LBE43:
 219               	.LBE42:
 220               	.LM29:
 221 0092 8B81      		ldd r24,Y+3
 222               	.LVL17:
 223 0094 9C81      		ldd r25,Y+4
 224               	.LVL18:
 225               	/* epilogue start */
 226 0096 0F90      		pop __tmp_reg__
 227 0098 0F90      		pop __tmp_reg__
 228 009a 0F90      		pop __tmp_reg__
 229 009c 0F90      		pop __tmp_reg__
 230 009e CF91      		pop r28
 231 00a0 DF91      		pop r29
 232 00a2 0895      		ret
 233               	.LFE17:
 235               	.global	eeprom_w32
 237               	eeprom_w32:
 238               	.LFB16:
 239               	.LM30:
 240               	.LVL19:
 241 00a4 DF93      		push r29
 242 00a6 CF93      		push r28
 243 00a8 00D0      		rcall .
 244 00aa 00D0      		rcall .
 245 00ac CDB7      		in r28,__SP_L__
 246 00ae DEB7      		in r29,__SP_H__
 247               	/* prologue: function */
 248               	/* frame size = 4 */
 249 00b0 4983      		std Y+1,r20
 250 00b2 5A83      		std Y+2,r21
 251 00b4 6B83      		std Y+3,r22
 252 00b6 7C83      		std Y+4,r23
 253               	.LVL20:
 254               	.L23:
 255               	.LM31:
 256 00b8 E199      		sbic 60-32,1
 257 00ba 00C0      		rjmp .L23
 258               	.LBB44:
 259               	.LBB45:
 260               	.LM32:
 261 00bc BE01      		movw r22,r28
 262 00be 6F5F      		subi r22,lo8(-(1))
 263 00c0 7F4F      		sbci r23,hi8(-(1))
 264 00c2 44E0      		ldi r20,lo8(4)
 265 00c4 50E0      		ldi r21,hi8(4)
 266 00c6 20E0      		ldi r18,lo8(gs(eeprom_write_byte))
 267 00c8 30E0      		ldi r19,hi8(gs(eeprom_write_byte))
 268 00ca 0E94 0000 		call __eewr_block
 269               	.LVL21:
 270               	/* epilogue start */
 271               	.LBE45:
 272               	.LBE44:
 273               	.LM33:
 274 00ce 0F90      		pop __tmp_reg__
 275 00d0 0F90      		pop __tmp_reg__
 276 00d2 0F90      		pop __tmp_reg__
 277 00d4 0F90      		pop __tmp_reg__
 278 00d6 CF91      		pop r28
 279 00d8 DF91      		pop r29
 280 00da 0895      		ret
 281               	.LFE16:
 283               	.global	eeprom_r16
 285               	eeprom_r16:
 286               	.LFB15:
 287               	.LM34:
 288               	.LVL22:
 289               	/* prologue: function */
 290               	/* frame size = 0 */
 291               	.LBB46:
 292               	.LM35:
 293 00dc 60E0      		ldi r22,lo8(gs(eeprom_read_byte))
 294 00de 70E0      		ldi r23,hi8(gs(eeprom_read_byte))
 295 00e0 0E94 0000 		call __eerd_word
 296               	.LVL23:
 297               	/* epilogue start */
 298               	.LBE46:
 299               	.LM36:
 300 00e4 0895      		ret
 301               	.LFE15:
 303               	.global	eeprom_w16
 305               	eeprom_w16:
 306               	.LFB14:
 307               	.LM37:
 308               	.LVL24:
 309               	/* prologue: function */
 310               	/* frame size = 0 */
 311               	.LM38:
 312 00e6 1092 0000 		sts (wtch_counter)+1,__zero_reg__
 313 00ea 1092 0000 		sts wtch_counter,__zero_reg__
 314               	/* #APP */
 315               	 ;  95 "eeprom.c" 1
 316 00ee A895      		wdr
 317               	 ;  0 "" 2
 318               	/* #NOAPP */
 319               	.L29:
 320               	.LM39:
 321 00f0 E199      		sbic 60-32,1
 322 00f2 00C0      		rjmp .L29
 323               	.LBB47:
 324               	.LBB48:
 325               	.LM40:
 326 00f4 40E0      		ldi r20,lo8(gs(eeprom_write_byte))
 327 00f6 50E0      		ldi r21,hi8(gs(eeprom_write_byte))
 328 00f8 0E94 0000 		call __eewr_word
 329               	.LVL25:
 330               	/* epilogue start */
 331               	.LBE48:
 332               	.LBE47:
 333               	.LM41:
 334 00fc 0895      		ret
 335               	.LFE14:
 337               	.global	eeprom_save
 339               	eeprom_save:
 340               	.LFB11:
 341               	.LM42:
 342               	/* prologue: function */
 343               	/* frame size = 0 */
 344               	.LM43:
 345               	/* #APP */
 346               	 ;  65 "eeprom.c" 1
 347 00fe A895      		wdr
 348               	 ;  0 "" 2
 349               	.LM44:
 350               	/* #NOAPP */
 351 0100 8FEF      		ldi r24,lo8(-1)
 352 0102 9FEF      		ldi r25,hi8(-1)
 353 0104 9093 0000 		sts (wtch_counter)+1,r25
 354 0108 8093 0000 		sts wtch_counter,r24
 355 010c 88E1      		ldi r24,lo8(24)
 356               	/* #APP */
 357               	 ;  66 "eeprom.c" 1
 358 010e 0FB6      		in __tmp_reg__, __SREG__
 359 0110 F894      		cli
 360 0112 81BD      		out 33, r24
 361 0114 11BC      		out 33, __zero_reg__
 362 0116 0FBE      		out __SREG__,__tmp_reg__
 363               		
 364               	 ;  0 "" 2
 365               	.LM45:
 366               	/* #NOAPP */
 367 0118 4091 0000 		lds r20,irc_counter
 368 011c 5091 0000 		lds r21,(irc_counter)+1
 369 0120 6091 0000 		lds r22,(irc_counter)+2
 370 0124 7091 0000 		lds r23,(irc_counter)+3
 371 0128 80E0      		ldi r24,lo8(0)
 372 012a 90E0      		ldi r25,hi8(0)
 373 012c 0E94 0000 		call eeprom_w32
 374               	.LM46:
 375 0130 2091 0000 		lds r18,width_src
 376               	.LBB49:
 377               	.LBB50:
 378               	.LM47:
 379               	/* #APP */
 380               	 ;  82 "eeprom.c" 1
 381 0134 A895      		wdr
 382               	 ;  0 "" 2
 383               	/* #NOAPP */
 384               	.L33:
 385               	.LM48:
 386 0136 E199      		sbic 60-32,1
 387 0138 00C0      		rjmp .L33
 388               	.L39:
 389               	.LBB51:
 390               	.LBB52:
 391               	.LM49:
 392 013a E199      		sbic 60-32,1
 393 013c 00C0      		rjmp .L39
 394               	.LM50:
 395 013e 8AE0      		ldi r24,lo8(10)
 396 0140 90E0      		ldi r25,hi8(10)
 397 0142 9FBB      		out (62)+1-32,r25
 398 0144 8EBB      		out 62-32,r24
 399               	.LM51:
 400 0146 2DBB      		out 61-32,r18
 401               	.LM52:
 402               	/* #APP */
 403               	 ;  315 "c:/winavr-20090313/lib/gcc/../../avr/include/avr/eeprom.h" 1
 404               		/* START EEPROM WRITE CRITICAL SECTION */
 405 0148 0FB6      		in	r0, 63		
 406 014a F894      		cli				
 407 014c E29A      		sbi	28, 2	
 408 014e E19A      		sbi	28, 1	
 409 0150 0FBE      		out	63, r0		
 410               		/* END EEPROM WRITE CRITICAL SECTION */
 411               	 ;  0 "" 2
 412               	/* #NOAPP */
 413               	.LBE52:
 414               	.LBE51:
 415               	.LBE50:
 416               	.LBE49:
 417               	.LBB53:
 418               	.LBB54:
 419               	.LM53:
 420 0152 1092 0000 		sts (wtch_counter)+1,__zero_reg__
 421 0156 1092 0000 		sts wtch_counter,__zero_reg__
 422               	/* #APP */
 423               	 ;  82 "eeprom.c" 1
 424 015a A895      		wdr
 425               	 ;  0 "" 2
 426               	/* #NOAPP */
 427               	.L35:
 428               	.LM54:
 429 015c E199      		sbic 60-32,1
 430 015e 00C0      		rjmp .L35
 431               	.L38:
 432               	.LBB55:
 433               	.LBB56:
 434               	.LM55:
 435 0160 E199      		sbic 60-32,1
 436 0162 00C0      		rjmp .L38
 437               	.LM56:
 438 0164 8BE0      		ldi r24,lo8(11)
 439 0166 90E0      		ldi r25,hi8(11)
 440 0168 9FBB      		out (62)+1-32,r25
 441 016a 8EBB      		out 62-32,r24
 442               	.LM57:
 443 016c 8FE3      		ldi r24,lo8(63)
 444 016e 8DBB      		out 61-32,r24
 445               	.LM58:
 446               	/* #APP */
 447               	 ;  315 "c:/winavr-20090313/lib/gcc/../../avr/include/avr/eeprom.h" 1
 448               		/* START EEPROM WRITE CRITICAL SECTION */
 449 0170 0FB6      		in	r0, 63		
 450 0172 F894      		cli				
 451 0174 E29A      		sbi	28, 2	
 452 0176 E19A      		sbi	28, 1	
 453 0178 0FBE      		out	63, r0		
 454               		/* END EEPROM WRITE CRITICAL SECTION */
 455               	 ;  0 "" 2
 456               	/* #NOAPP */
 457               	.LBE56:
 458               	.LBE55:
 459               	.LBE54:
 460               	.LBE53:
 461               	.LM59:
 462 017a 0E94 0000 		call uloz_posledni_data
 463               	.LM60:
 464 017e 8CE0      		ldi r24,lo8(12)
 465 0180 90E0      		ldi r25,hi8(12)
 466 0182 0E94 0000 		call dat_zak_write_eeprom
 467               	.LM61:
 468 0186 8CE9      		ldi r24,lo8(156)
 469 0188 90E0      		ldi r25,hi8(156)
 470 018a 0E94 0000 		call dat_write_eeprom
 471               	.LM62:
 472 018e 2FE0      		ldi r18,lo8(15)
 473 0190 88E1      		ldi r24,lo8(24)
 474 0192 90E0      		ldi r25,hi8(24)
 475               	/* #APP */
 476               	 ;  75 "eeprom.c" 1
 477 0194 0FB6      		in __tmp_reg__,__SREG__
 478 0196 F894      		cli
 479 0198 A895      		wdr
 480 019a 81BD      		out 33,r24
 481 019c 0FBE      		out __SREG__,__tmp_reg__
 482 019e 21BD      		out 33,r18
 483               	 ;  0 "" 2
 484               	.LM63:
 485               	/* #NOAPP */
 486 01a0 1092 0000 		sts (wtch_counter)+1,__zero_reg__
 487 01a4 1092 0000 		sts wtch_counter,__zero_reg__
 488               	/* #APP */
 489               	 ;  76 "eeprom.c" 1
 490 01a8 A895      		wdr
 491               	 ;  0 "" 2
 492               	/* epilogue start */
 493               	.LM64:
 494               	/* #NOAPP */
 495 01aa 0895      		ret
 496               	.LFE11:
 498               	.global	eeprom_load
 500               	eeprom_load:
 501               	.LFB10:
 502               	.LM65:
 503               	/* prologue: function */
 504               	/* frame size = 0 */
 505               	.LM66:
 506 01ac 80E0      		ldi r24,lo8(0)
 507 01ae 90E0      		ldi r25,hi8(0)
 508 01b0 0E94 0000 		call eeprom_r32
 509 01b4 6093 0000 		sts irc_counter,r22
 510 01b8 7093 0000 		sts (irc_counter)+1,r23
 511 01bc 8093 0000 		sts (irc_counter)+2,r24
 512 01c0 9093 0000 		sts (irc_counter)+3,r25
 513               	.LBB57:
 514               	.LBB58:
 515               	.LBB59:
 516               	.LM67:
 517 01c4 84E0      		ldi r24,lo8(4)
 518 01c6 90E0      		ldi r25,hi8(4)
 519 01c8 60E0      		ldi r22,lo8(gs(eeprom_read_byte))
 520 01ca 70E0      		ldi r23,hi8(gs(eeprom_read_byte))
 521 01cc 0E94 0000 		call __eerd_word
 522               	.LBE59:
 523               	.LBE58:
 524               	.LBE57:
 525               	.LM68:
 526 01d0 9093 0000 		sts (irc_k)+1,r25
 527 01d4 8093 0000 		sts irc_k,r24
 528               	.LM69:
 529 01d8 86E0      		ldi r24,lo8(6)
 530 01da 90E0      		ldi r25,hi8(6)
 531 01dc 0E94 0000 		call eeprom_r32
 532 01e0 6093 0000 		sts irc_set_on_value,r22
 533 01e4 7093 0000 		sts (irc_set_on_value)+1,r23
 534 01e8 8093 0000 		sts (irc_set_on_value)+2,r24
 535 01ec 9093 0000 		sts (irc_set_on_value)+3,r25
 536               	.L45:
 537               	.LBB60:
 538               	.LBB61:
 539               	.LBB62:
 540               	.LBB63:
 541               	.LM70:
 542 01f0 E199      		sbic 60-32,1
 543 01f2 00C0      		rjmp .L45
 544               	.LM71:
 545 01f4 8AE0      		ldi r24,lo8(10)
 546 01f6 90E0      		ldi r25,hi8(10)
 547 01f8 9FBB      		out (62)+1-32,r25
 548 01fa 8EBB      		out 62-32,r24
 549               	.LM72:
 550               	/* #APP */
 551               	 ;  208 "c:/winavr-20090313/lib/gcc/../../avr/include/avr/eeprom.h" 1
 552               		/* START EEPROM READ CRITICAL SECTION */ 
 553 01fc E09A      		sbi 28, 0 
 554 01fe 8DB3      		in r24, 29 
 555               		/* END EEPROM READ CRITICAL SECTION */ 
 556               		
 557               	 ;  0 "" 2
 558               	.LVL26:
 559               	/* #NOAPP */
 560               	.LBE63:
 561               	.LBE62:
 562               	.LBE61:
 563               	.LBE60:
 564               	.LM73:
 565 0200 8330      		cpi r24,lo8(3)
 566 0202 00F0      		brlo .L46
 567 0204 81E0      		ldi r24,lo8(1)
 568               	.L46:
 569 0206 8093 0000 		sts width_src,r24
 570               	.L47:
 571               	.LBB64:
 572               	.LBB65:
 573               	.LBB66:
 574               	.LBB67:
 575               	.LM74:
 576 020a E199      		sbic 60-32,1
 577 020c 00C0      		rjmp .L47
 578               	.LM75:
 579 020e 8BE0      		ldi r24,lo8(11)
 580 0210 90E0      		ldi r25,hi8(11)
 581               	.LVL27:
 582 0212 9FBB      		out (62)+1-32,r25
 583 0214 8EBB      		out 62-32,r24
 584               	.LM76:
 585               	/* #APP */
 586               	 ;  208 "c:/winavr-20090313/lib/gcc/../../avr/include/avr/eeprom.h" 1
 587               		/* START EEPROM READ CRITICAL SECTION */ 
 588 0216 E09A      		sbi 28, 0 
 589 0218 8DB3      		in r24, 29 
 590               		/* END EEPROM READ CRITICAL SECTION */ 
 591               		
 592               	 ;  0 "" 2
 593               	.LVL28:
 594               	/* #NOAPP */
 595               	.LBE67:
 596               	.LBE66:
 597               	.LBE65:
 598               	.LBE64:
 599               	.LM77:
 600 021a 8F33      		cpi r24,lo8(63)
 601 021c 01F4      		brne .L48
 602               	.L52:
 603               	.LBB68:
 604               	.LBB69:
 605               	.LBB70:
 606               	.LBB71:
 607               	.LM78:
 608 021e E199      		sbic 60-32,1
 609 0220 00C0      		rjmp .L52
 610               	.LM79:
 611 0222 8AE0      		ldi r24,lo8(10)
 612 0224 90E0      		ldi r25,hi8(10)
 613               	.LVL29:
 614 0226 9FBB      		out (62)+1-32,r25
 615 0228 8EBB      		out 62-32,r24
 616               	.LM80:
 617               	/* #APP */
 618               	 ;  208 "c:/winavr-20090313/lib/gcc/../../avr/include/avr/eeprom.h" 1
 619               		/* START EEPROM READ CRITICAL SECTION */ 
 620 022a E09A      		sbi 28, 0 
 621 022c 8DB3      		in r24, 29 
 622               		/* END EEPROM READ CRITICAL SECTION */ 
 623               		
 624               	 ;  0 "" 2
 625               	.LVL30:
 626               	/* #NOAPP */
 627               	.LBE71:
 628               	.LBE70:
 629               	.LBE69:
 630               	.LBE68:
 631               	.LM81:
 632 022e 8093 0000 		sts width_src,r24
 633               	.LM82:
 634 0232 8CE0      		ldi r24,lo8(12)
 635 0234 90E0      		ldi r25,hi8(12)
 636               	.LVL31:
 637 0236 0E94 0000 		call dat_zak_read_eeprom
 638               	.LM83:
 639 023a 8CE9      		ldi r24,lo8(156)
 640 023c 90E0      		ldi r25,hi8(156)
 641 023e 0E94 0000 		call dat_read_eeprom
 642 0242 0895      		ret
 643               	.LVL32:
 644               	.L48:
 645               	.LM84:
 646 0244 80E5      		ldi r24,lo8(336)
 647 0246 91E0      		ldi r25,hi8(336)
 648               	.LVL33:
 649 0248 0E94 0000 		call set_irc_k
 650               	.LM85:
 651 024c 6CEC      		ldi r22,lo8(4300)
 652 024e 70E1      		ldi r23,hi8(4300)
 653 0250 80E0      		ldi r24,hlo8(4300)
 654 0252 90E0      		ldi r25,hhi8(4300)
 655 0254 0E94 0000 		call set_irc_set_on_value
 656               	.LM86:
 657 0258 0E94 0000 		call dat_free_m_jmena
 658 025c 0895      		ret
 659               	.LFE10:
 661               		.comm width_src,1,1
 662               		.comm irc_counter,4,1
 663               		.comm irc_set_on_value,4,1
 664               		.comm irc_k,2,1
 665               		.comm data_delka,2,1
 666               		.comm data_zakaznik,1,1
 667               		.comm data_prumer,2,1
 668               		.comm data_druh_dreva,1,1
 669               		.comm data_operace,1,1
 670               		.comm data_top,2,1
 671               		.comm m_jmena,34,1
 672               		.comm wtch_counter,2,1
 673               		.comm prumer_v,2,1
 674               		.comm prumer_h,2,1
 675               		.comm msr_prumer_v,2,1
 676               		.comm msr_prumer_h,2,1
 677               		.comm msr_prumer,2,1
 678               		.comm msr_delka,2,1
 679               		.comm msr_objem,2,1
 680               		.comm msr_status,1,1
 777               	.Letext0:
DEFINED SYMBOLS
                            *ABS*:00000000 eeprom.c
C:\Users\mjirik\AppData\Local\Temp/cchTXhuy.s:2      *ABS*:0000003f __SREG__
C:\Users\mjirik\AppData\Local\Temp/cchTXhuy.s:3      *ABS*:0000003e __SP_H__
C:\Users\mjirik\AppData\Local\Temp/cchTXhuy.s:4      *ABS*:0000003d __SP_L__
C:\Users\mjirik\AppData\Local\Temp/cchTXhuy.s:5      *ABS*:00000034 __CCP__
C:\Users\mjirik\AppData\Local\Temp/cchTXhuy.s:6      *ABS*:00000000 __tmp_reg__
C:\Users\mjirik\AppData\Local\Temp/cchTXhuy.s:7      *ABS*:00000001 __zero_reg__
C:\Users\mjirik\AppData\Local\Temp/cchTXhuy.s:17     .text:00000000 eeprom_read_byte
C:\Users\mjirik\AppData\Local\Temp/cchTXhuy.s:50     .text:00000010 eeprom_write_byte
C:\Users\mjirik\AppData\Local\Temp/cchTXhuy.s:86     .text:00000028 eeprom_w8
                            *COM*:00000002 wtch_counter
C:\Users\mjirik\AppData\Local\Temp/cchTXhuy.s:138    .text:0000004e eeprom_r8
C:\Users\mjirik\AppData\Local\Temp/cchTXhuy.s:176    .text:0000005e eeprom_r32
C:\Users\mjirik\AppData\Local\Temp/cchTXhuy.s:237    .text:000000a4 eeprom_w32
C:\Users\mjirik\AppData\Local\Temp/cchTXhuy.s:285    .text:000000dc eeprom_r16
C:\Users\mjirik\AppData\Local\Temp/cchTXhuy.s:305    .text:000000e6 eeprom_w16
C:\Users\mjirik\AppData\Local\Temp/cchTXhuy.s:339    .text:000000fe eeprom_save
                            *COM*:00000004 irc_counter
                            *COM*:00000001 width_src
C:\Users\mjirik\AppData\Local\Temp/cchTXhuy.s:500    .text:000001ac eeprom_load
                            *COM*:00000002 irc_k
                            *COM*:00000004 irc_set_on_value
                            *COM*:00000002 data_delka
                            *COM*:00000001 data_zakaznik
                            *COM*:00000002 data_prumer
                            *COM*:00000001 data_druh_dreva
                            *COM*:00000001 data_operace
                            *COM*:00000002 data_top
                            *COM*:00000022 m_jmena
                            *COM*:00000002 prumer_v
                            *COM*:00000002 prumer_h
                            *COM*:00000002 msr_prumer_v
                            *COM*:00000002 msr_prumer_h
                            *COM*:00000002 msr_prumer
                            *COM*:00000002 msr_delka
                            *COM*:00000002 msr_objem
                            *COM*:00000001 msr_status

UNDEFINED SYMBOLS
__eerd_block
__eewr_block
__eerd_word
__eewr_word
uloz_posledni_data
dat_zak_write_eeprom
dat_write_eeprom
dat_zak_read_eeprom
dat_read_eeprom
set_irc_k
set_irc_set_on_value
dat_free_m_jmena
__do_clear_bss
